; Function Attrs: mustprogress uwtable
define hidden void @_ZN19OpenColorIO_v2_4dev16CIOPOciozArchive12buildEntriesEv(ptr noundef nonnull align 8 dereferenceable(88) %this) local_unnamed_addr #0 align 2 personality ptr @__gxx_personality_v0 {
entry:
  %ociozStream = alloca %"class.std::basic_ifstream", align 8
  %os = alloca %"class.std::__cxx11::basic_ostringstream", align 8
  %ref.tmp = alloca %"class.std::__cxx11::basic_string", align 8
  %m_archiveAbsPath = getelementptr inbounds i8, ptr %this, i64 8
  %call = tail call noundef ptr @_ZNKSt7__cxx1112basic_stringIcSt11char_traitsIcESaIcEE5c_strEv(ptr noundef nonnull align 8 dereferenceable(32) %m_archiveAbsPath) #15
  call void @_ZN19OpenColorIO_v2_4dev8Platform21CreateInputFileStreamEPKcSt13_Ios_Openmode(ptr nonnull sret(%"class.std::basic_ifstream") align 8 %ociozStream, ptr noundef %call, i32 noundef 12)
  %vtable = load ptr, ptr %ociozStream, align 8
  %vbase.offset.ptr = getelementptr i8, ptr %vtable, i64 -24
  %vbase.offset = load i64, ptr %vbase.offset.ptr, align 8
  %add.ptr = getelementptr inbounds i8, ptr %ociozStream, i64 %vbase.offset
  %call3 = invoke noundef zeroext i1 @_ZNKSt9basic_iosIcSt11char_traitsIcEE4failEv(ptr noundef nonnull align 8 dereferenceable(264) %add.ptr)
          to label %invoke.cont unwind label %lpad

invoke.cont:                                      ; preds = %entry
  br i1 %call3, label %if.then, label %if.end

if.then:                                          ; preds = %invoke.cont
  invoke void @_ZNSt7__cxx1119basic_ostringstreamIcSt11char_traitsIcESaIcEEC1Ev(ptr noundef nonnull align 8 dereferenceable(112) %os)
          to label %invoke.cont4 unwind label %lpad

invoke.cont4:                                     ; preds = %if.then
  %call7 = invoke noundef nonnull align 8 dereferenceable(8) ptr @_ZStlsISt11char_traitsIcEERSt13basic_ostreamIcT_ES5_PKc(ptr noundef nonnull align 8 dereferenceable(8) %os, ptr noundef nonnull @.str.16)
          to label %invoke.cont6 unwind label %lpad5

invoke.cont6:                                     ; preds = %invoke.cont4
  %call10 = invoke noundef nonnull align 8 dereferenceable(8) ptr @_ZStlsIcSt11char_traitsIcESaIcEERSt13basic_ostreamIT_T0_ES7_RKNSt7__cxx1112basic_stringIS4_S5_T1_EE(ptr noundef nonnull align 8 dereferenceable(8) %call7, ptr noundef nonnull align 8 dereferenceable(32) %m_archiveAbsPath)
          to label %invoke.cont9 unwind label %lpad5

invoke.cont9:                                     ; preds = %invoke.cont6
  %exception = call ptr @__cxa_allocate_exception(i64 16) #15
  invoke void @_ZNKSt7__cxx1119basic_ostringstreamIcSt11char_traitsIcESaIcEE3strEv(ptr nonnull sret(%"class.std::__cxx11::basic_string") align 8 %ref.tmp, ptr noundef nonnull align 8 dereferenceable(112) %os)
          to label %invoke.cont12 unwind label %ehcleanup.thread

invoke.cont12:                                    ; preds = %invoke.cont9
  %call13 = call noundef ptr @_ZNKSt7__cxx1112basic_stringIcSt11char_traitsIcESaIcEE5c_strEv(ptr noundef nonnull align 8 dereferenceable(32) %ref.tmp) #15
  invoke void @_ZN19OpenColorIO_v2_4dev9ExceptionC1EPKc(ptr noundef nonnull align 8 dereferenceable(16) %exception, ptr noundef %call13)
          to label %invoke.cont15 unwind label %ehcleanup.thread7

ehcleanup.thread7:                                ; preds = %invoke.cont12
  %0 = landingpad { ptr, i32 }
          cleanup
  call void @_ZNSt7__cxx1112basic_stringIcSt11char_traitsIcESaIcEED1Ev(ptr noundef nonnull align 8 dereferenceable(32) %ref.tmp) #15
  br label %cleanup.action

invoke.cont15:                                    ; preds = %invoke.cont12
  invoke void @__cxa_throw(ptr nonnull %exception, ptr nonnull @_ZTIN19OpenColorIO_v2_4dev9ExceptionE, ptr nonnull @_ZN19OpenColorIO_v2_4dev9ExceptionD1Ev) #16
          to label %unreachable unwind label %ehcleanup

lpad:                                             ; preds = %if.end, %if.then, %entry
  %1 = landingpad { ptr, i32 }
          cleanup
  br label %ehcleanup19

lpad5:                                            ; preds = %invoke.cont6, %invoke.cont4
  %2 = landingpad { ptr, i32 }
          cleanup
  br label %ehcleanup16

ehcleanup.thread:                                 ; preds = %invoke.cont9
  %3 = landingpad { ptr, i32 }
          cleanup
  br label %cleanup.action

ehcleanup:                                        ; preds = %invoke.cont15
  %4 = landingpad { ptr, i32 }
          cleanup
  call void @_ZNSt7__cxx1112basic_stringIcSt11char_traitsIcESaIcEED1Ev(ptr noundef nonnull align 8 dereferenceable(32) %ref.tmp) #15
  br label %ehcleanup16

cleanup.action:                                   ; preds = %ehcleanup.thread7, %ehcleanup.thread
  %.pn6 = phi { ptr, i32 } [ %3, %ehcleanup.thread ], [ %0, %ehcleanup.thread7 ]
  call void @__cxa_free_exception(ptr %exception) #15
  br label %ehcleanup16

ehcleanup16:                                      ; preds = %ehcleanup, %cleanup.action, %lpad5
  %.pn.pn = phi { ptr, i32 } [ %.pn6, %cleanup.action ], [ %4, %ehcleanup ], [ %2, %lpad5 ]
  call void @_ZNSt7__cxx1119basic_ostringstreamIcSt11char_traitsIcESaIcEED1Ev(ptr noundef nonnull align 8 dereferenceable(112) %os) #15
  br label %ehcleanup19

if.end:                                           ; preds = %invoke.cont
  %m_entries = getelementptr inbounds i8, ptr %this, i64 40
  invoke void @_ZN19OpenColorIO_v2_4dev32getEntriesMappingFromArchiveFileERKNSt7__cxx1112basic_stringIcSt11char_traitsIcESaIcEEERSt3mapIS5_S5_St4lessIS5_ESaISt4pairIS6_S5_EEE(ptr noundef nonnull align 8 dereferenceable(32) %m_archiveAbsPath, ptr noundef nonnull align 8 dereferenceable(48) %m_entries)
          to label %invoke.cont18 unwind label %lpad

invoke.cont18:                                    ; preds = %if.end
  call void @_ZNSt14basic_ifstreamIcSt11char_traitsIcEED1Ev(ptr noundef nonnull align 8 dereferenceable(256) %ociozStream) #15
  ret void

ehcleanup19:                                      ; preds = %ehcleanup16, %lpad
  %.pn.pn.pn = phi { ptr, i32 } [ %.pn.pn, %ehcleanup16 ], [ %1, %lpad ]
  call void @_ZNSt14basic_ifstreamIcSt11char_traitsIcEED1Ev(ptr noundef nonnull align 8 dereferenceable(256) %ociozStream) #15
  resume { ptr, i32 } %.pn.pn.pn

unreachable:                                      ; preds = %invoke.cont15
  unreachable
}